target datalayout = "e-m:e-p270:32:32-p271:32:32-p272:64:64-i64:64-i128:128-f80:128-n8:16:32:64-S128"
target triple = "x86_64-pc-linux-gnu"

@.str.12 = private unnamed_addr constant [3 x i8] c"rb\00", align 1
@.str.13 = private unnamed_addr constant [32 x i8] c"cl_cvdhead: Can't open file %s\0A\00", align 1
@.str.14 = private unnamed_addr constant [41 x i8] c"cl_cvdhead: Can't read CVD header in %s\0A\00", align 1
@.str.15 = private unnamed_addr constant [3 x i8] c"\0A\0D\00", align 1

; Function Attrs: nounwind uwtable
define ptr @cl_cvdhead(ptr noundef %0) #0 {
  %2 = alloca ptr, align 8
  %3 = alloca ptr, align 8
  %4 = alloca ptr, align 8
  %5 = alloca [513 x i8], align 16
  %6 = alloca ptr, align 8
  %7 = alloca i32, align 4
  %8 = alloca i32, align 4
  %9 = alloca i32, align 4
  store ptr %0, ptr %3, align 8, !tbaa !3
  call void @llvm.lifetime.start.p0(i64 8, ptr %4) #11
  call void @llvm.lifetime.start.p0(i64 513, ptr %5) #11
  call void @llvm.lifetime.start.p0(i64 8, ptr %6) #11
  call void @llvm.lifetime.start.p0(i64 4, ptr %7) #11
  call void @llvm.lifetime.start.p0(i64 4, ptr %8) #11
  %10 = load ptr, ptr %3, align 8, !tbaa !3
  %11 = call noalias ptr @fopen(ptr noundef %10, ptr noundef @.str.12)
  store ptr %11, ptr %4, align 8, !tbaa !20
  %12 = icmp eq ptr %11, null
  br i1 %12, label %13, label %15

13:                                               ; preds = %1
  %14 = load ptr, ptr %3, align 8, !tbaa !3
  call void (ptr, ...) @cli_errmsg(ptr noundef @.str.13, ptr noundef %14)
  store ptr null, ptr %2, align 8
  store i32 1, ptr %9, align 4
  br label %77

15:                                               ; preds = %1
  %16 = getelementptr inbounds [513 x i8], ptr %5, i64 0, i64 0
  %17 = load ptr, ptr %4, align 8, !tbaa !20
  %18 = call i64 @fread(ptr noundef %16, i64 noundef 1, i64 noundef 512, ptr noundef %17)
  %19 = trunc i64 %18 to i32
  store i32 %19, ptr %8, align 4, !tbaa !22
  %20 = icmp ne i32 %19, 0
  br i1 %20, label %25, label %21

21:                                               ; preds = %15
  %22 = load ptr, ptr %3, align 8, !tbaa !3
  call void (ptr, ...) @cli_errmsg(ptr noundef @.str.14, ptr noundef %22)
  %23 = load ptr, ptr %4, align 8, !tbaa !20
  %24 = call i32 @fclose(ptr noundef %23)
  store ptr null, ptr %2, align 8
  store i32 1, ptr %9, align 4
  br label %77

25:                                               ; preds = %15
  %26 = load ptr, ptr %4, align 8, !tbaa !20
  %27 = call i32 @fclose(ptr noundef %26)
  %28 = load i32, ptr %8, align 4, !tbaa !22
  %29 = zext i32 %28 to i64
  %30 = getelementptr inbounds nuw [513 x i8], ptr %5, i64 0, i64 %29
  store i8 0, ptr %30, align 1, !tbaa !23
  %31 = getelementptr inbounds [513 x i8], ptr %5, i64 0, i64 0
  %32 = call ptr @strpbrk(ptr noundef %31, ptr noundef @.str.15) #12
  store ptr %32, ptr %6, align 8, !tbaa !3
  %33 = icmp ne ptr %32, null
  br i1 %33, label %34, label %36

34:                                               ; preds = %25
  %35 = load ptr, ptr %6, align 8, !tbaa !3
  store i8 0, ptr %35, align 1, !tbaa !23
  br label %36

36:                                               ; preds = %34, %25
  %37 = load i32, ptr %8, align 4, !tbaa !22
  %38 = sub i32 %37, 1
  store i32 %38, ptr %7, align 4, !tbaa !22
  br label %39

39:                                               ; preds = %68, %36
  %40 = load i32, ptr %7, align 4, !tbaa !22
  %41 = icmp sgt i32 %40, 0
  br i1 %41, label %42, label %65

42:                                               ; preds = %39
  %43 = load i32, ptr %7, align 4, !tbaa !22
  %44 = sext i32 %43 to i64
  %45 = getelementptr inbounds [513 x i8], ptr %5, i64 0, i64 %44
  %46 = load i8, ptr %45, align 1, !tbaa !23
  %47 = sext i8 %46 to i32
  %48 = icmp eq i32 %47, 32
  br i1 %48, label %63, label %49

49:                                               ; preds = %42
  %50 = load i32, ptr %7, align 4, !tbaa !22
  %51 = sext i32 %50 to i64
  %52 = getelementptr inbounds [513 x i8], ptr %5, i64 0, i64 %51
  %53 = load i8, ptr %52, align 1, !tbaa !23
  %54 = sext i8 %53 to i32
  %55 = icmp eq i32 %54, 10
  br i1 %55, label %63, label %56

56:                                               ; preds = %49
  %57 = load i32, ptr %7, align 4, !tbaa !22
  %58 = sext i32 %57 to i64
  %59 = getelementptr inbounds [513 x i8], ptr %5, i64 0, i64 %58
  %60 = load i8, ptr %59, align 1, !tbaa !23
  %61 = sext i8 %60 to i32
  %62 = icmp eq i32 %61, 13
  br label %63

63:                                               ; preds = %56, %49, %42
  %64 = phi i1 [ true, %49 ], [ true, %42 ], [ %62, %56 ]
  br label %65

65:                                               ; preds = %63, %39
  %66 = phi i1 [ false, %39 ], [ %64, %63 ]
  br i1 %66, label %67, label %74

67:                                               ; preds = %65
  br label %68

68:                                               ; preds = %67
  %69 = load i32, ptr %7, align 4, !tbaa !22
  %70 = sext i32 %69 to i64
  %71 = getelementptr inbounds [513 x i8], ptr %5, i64 0, i64 %70
  store i8 0, ptr %71, align 1, !tbaa !23
  %72 = load i32, ptr %7, align 4, !tbaa !22
  %73 = add nsw i32 %72, -1
  store i32 %73, ptr %7, align 4, !tbaa !22
  br label %39

74:                                               ; preds = %65
  %75 = getelementptr inbounds [513 x i8], ptr %5, i64 0, i64 0
  %76 = call ptr @cl_cvdparse(ptr noundef %75)
  store ptr %76, ptr %2, align 8
  store i32 1, ptr %9, align 4
  br label %77

77:                                               ; preds = %74, %21, %13
  call void @llvm.lifetime.end.p0(i64 4, ptr %8) #11
  call void @llvm.lifetime.end.p0(i64 4, ptr %7) #11
  call void @llvm.lifetime.end.p0(i64 8, ptr %6) #11
  call void @llvm.lifetime.end.p0(i64 513, ptr %5) #11
  call void @llvm.lifetime.end.p0(i64 8, ptr %4) #11
  %78 = load ptr, ptr %2, align 8
  ret ptr %78
}