; Function Attrs: nounwind uwtable
define noalias noundef ptr @cl_cvdhead(ptr noundef %0) local_unnamed_addr #0 {
  %2 = alloca [513 x i8], align 16
  call void @llvm.lifetime.start.p0(i64 513, ptr nonnull %2) #19
  %3 = tail call noalias ptr @fopen(ptr noundef %0, ptr noundef nonnull @.str.12)
  %4 = icmp eq ptr %3, null
  br i1 %4, label %5, label %6

5:                                                ; preds = %1
  tail call void (ptr, ...) @cli_errmsg(ptr noundef nonnull @.str.13, ptr noundef %0) #19
  br label %24

6:                                                ; preds = %1
  %7 = call i64 @fread(ptr noundef nonnull %2, i64 noundef 1, i64 noundef 512, ptr noundef nonnull %3)
  %8 = trunc i64 %7 to i32
  %.not = icmp eq i32 %8, 0
  br i1 %.not, label %9, label %11

9:                                                ; preds = %6
  tail call void (ptr, ...) @cli_errmsg(ptr noundef nonnull @.str.14, ptr noundef %0) #19
  %10 = tail call i32 @fclose(ptr noundef nonnull %3)
  br label %24

11:                                               ; preds = %6
  %12 = tail call i32 @fclose(ptr noundef nonnull %3)
  %13 = and i64 %7, 4294967295
  %14 = getelementptr inbounds nuw [513 x i8], ptr %2, i64 0, i64 %13
  store i8 0, ptr %14, align 1, !tbaa !17
  %15 = call ptr @strpbrk(ptr noundef nonnull %2, ptr noundef nonnull @.str.15) #18
  %.not22 = icmp eq ptr %15, null
  br i1 %.not22, label %17, label %16

16:                                               ; preds = %11
  store i8 0, ptr %15, align 1, !tbaa !17
  br label %17

17:                                               ; preds = %16, %11
  %.01723 = add i32 %8, -1
  %18 = icmp sgt i32 %.01723, 0
  br i1 %18, label %.lr.ph.preheader, label %.critedge

.lr.ph.preheader:                                 ; preds = %17
  %19 = zext nneg i32 %.01723 to i64
  br label %.lr.ph

.lr.ph:                                           ; preds = %.lr.ph.preheader, %.critedge2
  %indvars.iv = phi i64 [ %19, %.lr.ph.preheader ], [ %indvars.iv.next, %.critedge2 ]
  %20 = getelementptr inbounds nuw [513 x i8], ptr %2, i64 0, i64 %indvars.iv
  %21 = load i8, ptr %20, align 1, !tbaa !17
  switch i8 %21, label %.critedge [
    i8 32, label %.critedge2
    i8 10, label %.critedge2
    i8 13, label %.critedge2
  ]

.critedge2:                                       ; preds = %.lr.ph, %.lr.ph, %.lr.ph
  store i8 0, ptr %20, align 1, !tbaa !17
  %indvars.iv.next = add nsw i64 %indvars.iv, -1
  %22 = icmp sgt i64 %indvars.iv, 1
  br i1 %22, label %.lr.ph, label %.critedge

.critedge:                                        ; preds = %.critedge2, %.lr.ph, %17
  %23 = call ptr @cl_cvdparse(ptr noundef nonnull %2)
  br label %24

24:                                               ; preds = %.critedge, %9, %5
  %.0 = phi ptr [ null, %5 ], [ %23, %.critedge ], [ null, %9 ]
  call void @llvm.lifetime.end.p0(i64 513, ptr nonnull %2) #19
  ret ptr %.0
}